; Function Attrs: mustprogress nounwind memory(readwrite, inaccessiblemem: write) uwtable
define void @_ZN8facebook5velox15ByteInputStream5seekpESt4fposI11__mbstate_tE(ptr nocapture noundef nonnull align 8 dereferenceable(40) %this, i64 %position.coerce0, i64 %position.coerce1) local_unnamed_addr #6 align 2 {
entry:
  %ranges_ = getelementptr inbounds i8, ptr %this, i64 8
  %0 = load ptr, ptr %ranges_, align 8
  %_M_finish.i.i = getelementptr inbounds i8, ptr %this, i64 16
  %1 = load ptr, ptr %_M_finish.i.i, align 8
  %cmp.i.i = icmp eq ptr %0, %1
  %cmp = icmp eq i64 %position.coerce0, 0
  %or.cond = select i1 %cmp.i.i, i1 %cmp, i1 false
  br i1 %or.cond, label %return, label %for.cond.preheader

for.cond.preheader:                               ; preds = %entry
  br i1 %cmp.i.i, label %for.end, label %for.body

for.body:                                         ; preds = %for.cond.preheader, %if.end15
  %toSkip.013 = phi i64 [ %sub, %if.end15 ], [ %position.coerce0, %for.cond.preheader ]
  %__begin2.sroa.0.012 = phi ptr [ %incdec.ptr.i, %if.end15 ], [ %0, %for.cond.preheader ]
  %size = getelementptr inbounds i8, ptr %__begin2.sroa.0.012, i64 8
  %2 = load i32, ptr %size, align 8
  %conv = sext i32 %2 to i64
  %cmp10.not = icmp sgt i64 %toSkip.013, %conv
  br i1 %cmp10.not, label %if.end15, label %if.then11

if.then11:                                        ; preds = %for.body
  %current_ = getelementptr inbounds i8, ptr %this, i64 32
  store ptr %__begin2.sroa.0.012, ptr %current_, align 8
  %conv12 = trunc i64 %toSkip.013 to i32
  %position14 = getelementptr inbounds i8, ptr %__begin2.sroa.0.012, i64 12
  store i32 %conv12, ptr %position14, align 4
  br label %return

if.end15:                                         ; preds = %for.body
  %sub = sub nsw i64 %toSkip.013, %conv
  %incdec.ptr.i = getelementptr inbounds i8, ptr %__begin2.sroa.0.012, i64 16
  %cmp.i.not = icmp eq ptr %incdec.ptr.i, %1
  br i1 %cmp.i.not, label %for.end, label %for.body

for.end:                                          ; preds = %if.end15, %for.cond.preheader
  tail call void @llvm.trap()
  unreachable

return:                                           ; preds = %entry, %if.then11
  ret void
}